; Function Attrs: mustprogress uwtable
define hidden void @_ZN2cv17get_chebyshev_winENS_5Size_IiEEf(ptr dead_on_unwind noalias writable sret(%"class.cv::Mat") align 8 %0, i64 %1, float noundef %2) local_unnamed_addr #3 personality ptr @__gxx_personality_v0 {
  %4 = alloca %"class.cv::Mat", align 8
  %5 = alloca %"class.cv::Mat", align 8
  %6 = alloca %"class.cv::MatExpr", align 8
  %7 = alloca %"class.cv::Mat", align 8
  %8 = alloca %"class.cv::MatExpr", align 8
  %.sroa.0.0.extract.trunc = trunc i64 %1 to i32
  %.sroa.2.0.extract.shift = lshr i64 %1, 32
  %.sroa.2.0.extract.trunc = trunc nuw i64 %.sroa.2.0.extract.shift to i32
  call void @llvm.lifetime.start.p0(i64 96, ptr nonnull %4) #21
  call fastcc void @_ZN2cvL7chebwinEif(ptr dead_on_unwind noalias writable align 8 %4, i32 noundef %.sroa.2.0.extract.trunc, float noundef %2)
  call void @llvm.lifetime.start.p0(i64 96, ptr nonnull %5) #21
  call void @llvm.lifetime.start.p0(i64 352, ptr nonnull %6) #21
  call void @llvm.lifetime.start.p0(i64 96, ptr nonnull %7) #21
  invoke fastcc void @_ZN2cvL7chebwinEif(ptr dead_on_unwind noalias writable align 8 %7, i32 noundef %.sroa.0.0.extract.trunc, float noundef %2)
          to label %9 unwind label %28

9:                                                ; preds = %3
  invoke void @_ZNK2cv3Mat1tEv(ptr dead_on_unwind nonnull writable sret(%"class.cv::MatExpr") align 8 %6, ptr noundef nonnull align 8 dereferenceable(96) %7)
          to label %10 unwind label %30

10:                                               ; preds = %9
  call void @_ZN2cv3MatC1Ev(ptr noundef nonnull align 8 dereferenceable(96) %5) #21
  %11 = load ptr, ptr %6, align 8, !tbaa !26, !noalias !121
  %12 = load ptr, ptr %11, align 8, !tbaa !36
  %13 = getelementptr inbounds nuw i8, ptr %12, i64 24
  %14 = load ptr, ptr %13, align 8
  invoke void %14(ptr noundef nonnull align 8 dereferenceable(8) %11, ptr noundef nonnull align 8 dereferenceable(352) %6, ptr noundef nonnull align 8 dereferenceable(96) %5, i32 noundef -1)
          to label %_ZNK2cv7MatExprcvNS_3MatEEv.exit unwind label %.body

.body:                                            ; preds = %10
  %15 = landingpad { ptr, i32 }
          cleanup
  call void @_ZN2cv3MatD1Ev(ptr noundef nonnull align 8 dereferenceable(96) %5) #21
  call void @_ZN2cv7MatExprD2Ev(ptr noundef nonnull align 8 dereferenceable(352) %6) #21
  br label %32

_ZNK2cv7MatExprcvNS_3MatEEv.exit:                 ; preds = %10
  %16 = getelementptr inbounds nuw i8, ptr %6, i64 208
  call void @_ZN2cv3MatD1Ev(ptr noundef nonnull align 8 dereferenceable(96) %16) #21
  %17 = getelementptr inbounds nuw i8, ptr %6, i64 112
  call void @_ZN2cv3MatD1Ev(ptr noundef nonnull align 8 dereferenceable(96) %17) #21
  %18 = getelementptr inbounds nuw i8, ptr %6, i64 16
  call void @_ZN2cv3MatD1Ev(ptr noundef nonnull align 8 dereferenceable(96) %18) #21
  call void @_ZN2cv3MatD1Ev(ptr noundef nonnull align 8 dereferenceable(96) %7) #21
  call void @llvm.lifetime.end.p0(i64 96, ptr nonnull %7) #21
  call void @llvm.lifetime.end.p0(i64 352, ptr nonnull %6) #21
  call void @llvm.lifetime.start.p0(i64 352, ptr nonnull %8) #21
  invoke void @_ZN2cvmlERKNS_3MatES2_(ptr dead_on_unwind nonnull writable sret(%"class.cv::MatExpr") align 8 %8, ptr noundef nonnull align 8 dereferenceable(96) %4, ptr noundef nonnull align 8 dereferenceable(96) %5)
          to label %19 unwind label %34

19:                                               ; preds = %_ZNK2cv7MatExprcvNS_3MatEEv.exit
  call void @_ZN2cv3MatC1Ev(ptr noundef nonnull align 8 dereferenceable(96) %0) #21
  %20 = load ptr, ptr %8, align 8, !tbaa !26, !noalias !124
  %21 = load ptr, ptr %20, align 8, !tbaa !36
  %22 = getelementptr inbounds nuw i8, ptr %21, i64 24
  %23 = load ptr, ptr %22, align 8
  invoke void %23(ptr noundef nonnull align 8 dereferenceable(8) %20, ptr noundef nonnull align 8 dereferenceable(352) %8, ptr noundef nonnull align 8 dereferenceable(96) %0, i32 noundef -1)
          to label %_ZNK2cv7MatExprcvNS_3MatEEv.exit14 unwind label %.body12

.body12:                                          ; preds = %19
  %24 = landingpad { ptr, i32 }
          cleanup
  call void @_ZN2cv3MatD1Ev(ptr noundef nonnull align 8 dereferenceable(96) %0) #21
  call void @_ZN2cv7MatExprD2Ev(ptr noundef nonnull align 8 dereferenceable(352) %8) #21
  br label %36

_ZNK2cv7MatExprcvNS_3MatEEv.exit14:               ; preds = %19
  %25 = getelementptr inbounds nuw i8, ptr %8, i64 208
  call void @_ZN2cv3MatD1Ev(ptr noundef nonnull align 8 dereferenceable(96) %25) #21
  %26 = getelementptr inbounds nuw i8, ptr %8, i64 112
  call void @_ZN2cv3MatD1Ev(ptr noundef nonnull align 8 dereferenceable(96) %26) #21
  %27 = getelementptr inbounds nuw i8, ptr %8, i64 16
  call void @_ZN2cv3MatD1Ev(ptr noundef nonnull align 8 dereferenceable(96) %27) #21
  call void @llvm.lifetime.end.p0(i64 352, ptr nonnull %8) #21
  call void @_ZN2cv3MatD1Ev(ptr noundef nonnull align 8 dereferenceable(96) %5) #21
  call void @llvm.lifetime.end.p0(i64 96, ptr nonnull %5) #21
  call void @_ZN2cv3MatD1Ev(ptr noundef nonnull align 8 dereferenceable(96) %4) #21
  call void @llvm.lifetime.end.p0(i64 96, ptr nonnull %4) #21
  ret void

28:                                               ; preds = %3
  %29 = landingpad { ptr, i32 }
          cleanup
  br label %33

30:                                               ; preds = %9
  %31 = landingpad { ptr, i32 }
          cleanup
  br label %32

32:                                               ; preds = %.body, %30
  %.pn = phi { ptr, i32 } [ %15, %.body ], [ %31, %30 ]
  call void @_ZN2cv3MatD1Ev(ptr noundef nonnull align 8 dereferenceable(96) %7) #21
  br label %33

33:                                               ; preds = %32, %28
  %.pn.pn = phi { ptr, i32 } [ %.pn, %32 ], [ %29, %28 ]
  call void @llvm.lifetime.end.p0(i64 96, ptr nonnull %7) #21
  call void @llvm.lifetime.end.p0(i64 352, ptr nonnull %6) #21
  br label %37

34:                                               ; preds = %_ZNK2cv7MatExprcvNS_3MatEEv.exit
  %35 = landingpad { ptr, i32 }
          cleanup
  br label %36

36:                                               ; preds = %.body12, %34
  %.pn9 = phi { ptr, i32 } [ %24, %.body12 ], [ %35, %34 ]
  call void @llvm.lifetime.end.p0(i64 352, ptr nonnull %8) #21
  call void @_ZN2cv3MatD1Ev(ptr noundef nonnull align 8 dereferenceable(96) %5) #21
  br label %37

37:                                               ; preds = %36, %33
  %.pn9.pn = phi { ptr, i32 } [ %.pn9, %36 ], [ %.pn.pn, %33 ]
  call void @llvm.lifetime.end.p0(i64 96, ptr nonnull %5) #21
  call void @_ZN2cv3MatD1Ev(ptr noundef nonnull align 8 dereferenceable(96) %4) #21
  call void @llvm.lifetime.end.p0(i64 96, ptr nonnull %4) #21
  resume { ptr, i32 } %.pn9.pn
}